; ModuleID = 'source-C-CXX/35/1570.c'
source_filename = "source-C-CXX/35/1570.c"
target datalayout = "e-m:e-p270:32:32-p271:32:32-p272:64:64-i64:64-f80:128-n8:16:32:64-S128"
target triple = "x86_64-pc-linux-gnu"

@.str = private unnamed_addr constant [3 x i8] c"%s\00", align 1
@.str.1 = private unnamed_addr constant [3 x i8] c"NO\00", align 1
@.str.2 = private unnamed_addr constant [4 x i8] c"YES\00", align 1

; Function Attrs: nofree nounwind sspstrong uwtable
define dso_local i32 @main() local_unnamed_addr #0 {
  %1 = alloca [200 x i8], align 16
  %2 = alloca [200 x i8], align 16
  %3 = alloca [200 x i32], align 16
  %4 = getelementptr inbounds [200 x i8], [200 x i8]* %1, i64 0, i64 0
  call void @llvm.lifetime.start.p0i8(i64 200, i8* nonnull %4) #4
  %5 = getelementptr inbounds [200 x i8], [200 x i8]* %2, i64 0, i64 0
  call void @llvm.lifetime.start.p0i8(i64 200, i8* nonnull %5) #4
  %6 = bitcast [200 x i32]* %3 to i8*
  call void @llvm.lifetime.start.p0i8(i64 800, i8* nonnull %6) #4
  %7 = bitcast [200 x i32]* %3 to <4 x i32>*
  store <4 x i32> <i32 1, i32 1, i32 1, i32 1>, <4 x i32>* %7, align 16, !tbaa !5
  %8 = getelementptr inbounds [200 x i32], [200 x i32]* %3, i64 0, i64 4
  %9 = bitcast i32* %8 to <4 x i32>*
  store <4 x i32> <i32 1, i32 1, i32 1, i32 1>, <4 x i32>* %9, align 16, !tbaa !5
  %10 = getelementptr inbounds [200 x i32], [200 x i32]* %3, i64 0, i64 8
  %11 = bitcast i32* %10 to <4 x i32>*
  store <4 x i32> <i32 1, i32 1, i32 1, i32 1>, <4 x i32>* %11, align 16, !tbaa !5
  %12 = getelementptr inbounds [200 x i32], [200 x i32]* %3, i64 0, i64 12
  %13 = bitcast i32* %12 to <4 x i32>*
  store <4 x i32> <i32 1, i32 1, i32 1, i32 1>, <4 x i32>* %13, align 16, !tbaa !5
  %14 = getelementptr inbounds [200 x i32], [200 x i32]* %3, i64 0, i64 16
  %15 = bitcast i32* %14 to <4 x i32>*
  store <4 x i32> <i32 1, i32 1, i32 1, i32 1>, <4 x i32>* %15, align 16, !tbaa !5
  %16 = getelementptr inbounds [200 x i32], [200 x i32]* %3, i64 0, i64 20
  %17 = bitcast i32* %16 to <4 x i32>*
  store <4 x i32> <i32 1, i32 1, i32 1, i32 1>, <4 x i32>* %17, align 16, !tbaa !5
  %18 = getelementptr inbounds [200 x i32], [200 x i32]* %3, i64 0, i64 24
  %19 = bitcast i32* %18 to <4 x i32>*
  store <4 x i32> <i32 1, i32 1, i32 1, i32 1>, <4 x i32>* %19, align 16, !tbaa !5
  %20 = getelementptr inbounds [200 x i32], [200 x i32]* %3, i64 0, i64 28
  %21 = bitcast i32* %20 to <4 x i32>*
  store <4 x i32> <i32 1, i32 1, i32 1, i32 1>, <4 x i32>* %21, align 16, !tbaa !5
  %22 = getelementptr inbounds [200 x i32], [200 x i32]* %3, i64 0, i64 32
  %23 = bitcast i32* %22 to <4 x i32>*
  store <4 x i32> <i32 1, i32 1, i32 1, i32 1>, <4 x i32>* %23, align 16, !tbaa !5
  %24 = getelementptr inbounds [200 x i32], [200 x i32]* %3, i64 0, i64 36
  %25 = bitcast i32* %24 to <4 x i32>*
  store <4 x i32> <i32 1, i32 1, i32 1, i32 1>, <4 x i32>* %25, align 16, !tbaa !5
  %26 = getelementptr inbounds [200 x i32], [200 x i32]* %3, i64 0, i64 40
  %27 = bitcast i32* %26 to <4 x i32>*
  store <4 x i32> <i32 1, i32 1, i32 1, i32 1>, <4 x i32>* %27, align 16, !tbaa !5
  %28 = getelementptr inbounds [200 x i32], [200 x i32]* %3, i64 0, i64 44
  %29 = bitcast i32* %28 to <4 x i32>*
  store <4 x i32> <i32 1, i32 1, i32 1, i32 1>, <4 x i32>* %29, align 16, !tbaa !5
  %30 = getelementptr inbounds [200 x i32], [200 x i32]* %3, i64 0, i64 48
  %31 = bitcast i32* %30 to <4 x i32>*
  store <4 x i32> <i32 1, i32 1, i32 1, i32 1>, <4 x i32>* %31, align 16, !tbaa !5
  %32 = getelementptr inbounds [200 x i32], [200 x i32]* %3, i64 0, i64 52
  %33 = bitcast i32* %32 to <4 x i32>*
  store <4 x i32> <i32 1, i32 1, i32 1, i32 1>, <4 x i32>* %33, align 16, !tbaa !5
  %34 = getelementptr inbounds [200 x i32], [200 x i32]* %3, i64 0, i64 56
  %35 = bitcast i32* %34 to <4 x i32>*
  store <4 x i32> <i32 1, i32 1, i32 1, i32 1>, <4 x i32>* %35, align 16, !tbaa !5
  %36 = getelementptr inbounds [200 x i32], [200 x i32]* %3, i64 0, i64 60
  %37 = bitcast i32* %36 to <4 x i32>*
  store <4 x i32> <i32 1, i32 1, i32 1, i32 1>, <4 x i32>* %37, align 16, !tbaa !5
  %38 = getelementptr inbounds [200 x i32], [200 x i32]* %3, i64 0, i64 64
  %39 = bitcast i32* %38 to <4 x i32>*
  store <4 x i32> <i32 1, i32 1, i32 1, i32 1>, <4 x i32>* %39, align 16, !tbaa !5
  %40 = getelementptr inbounds [200 x i32], [200 x i32]* %3, i64 0, i64 68
  %41 = bitcast i32* %40 to <4 x i32>*
  store <4 x i32> <i32 1, i32 1, i32 1, i32 1>, <4 x i32>* %41, align 16, !tbaa !5
  %42 = getelementptr inbounds [200 x i32], [200 x i32]* %3, i64 0, i64 72
  %43 = bitcast i32* %42 to <4 x i32>*
  store <4 x i32> <i32 1, i32 1, i32 1, i32 1>, <4 x i32>* %43, align 16, !tbaa !5
  %44 = getelementptr inbounds [200 x i32], [200 x i32]* %3, i64 0, i64 76
  %45 = bitcast i32* %44 to <4 x i32>*
  store <4 x i32> <i32 1, i32 1, i32 1, i32 1>, <4 x i32>* %45, align 16, !tbaa !5
  %46 = getelementptr inbounds [200 x i32], [200 x i32]* %3, i64 0, i64 80
  %47 = bitcast i32* %46 to <4 x i32>*
  store <4 x i32> <i32 1, i32 1, i32 1, i32 1>, <4 x i32>* %47, align 16, !tbaa !5
  %48 = getelementptr inbounds [200 x i32], [200 x i32]* %3, i64 0, i64 84
  %49 = bitcast i32* %48 to <4 x i32>*
  store <4 x i32> <i32 1, i32 1, i32 1, i32 1>, <4 x i32>* %49, align 16, !tbaa !5
  %50 = getelementptr inbounds [200 x i32], [200 x i32]* %3, i64 0, i64 88
  %51 = bitcast i32* %50 to <4 x i32>*
  store <4 x i32> <i32 1, i32 1, i32 1, i32 1>, <4 x i32>* %51, align 16, !tbaa !5
  %52 = getelementptr inbounds [200 x i32], [200 x i32]* %3, i64 0, i64 92
  %53 = bitcast i32* %52 to <4 x i32>*
  store <4 x i32> <i32 1, i32 1, i32 1, i32 1>, <4 x i32>* %53, align 16, !tbaa !5
  %54 = getelementptr inbounds [200 x i32], [200 x i32]* %3, i64 0, i64 96
  %55 = bitcast i32* %54 to <4 x i32>*
  store <4 x i32> <i32 1, i32 1, i32 1, i32 1>, <4 x i32>* %55, align 16, !tbaa !5
  %56 = getelementptr inbounds [200 x i32], [200 x i32]* %3, i64 0, i64 100
  %57 = bitcast i32* %56 to <4 x i32>*
  store <4 x i32> <i32 1, i32 1, i32 1, i32 1>, <4 x i32>* %57, align 16, !tbaa !5
  %58 = getelementptr inbounds [200 x i32], [200 x i32]* %3, i64 0, i64 104
  %59 = bitcast i32* %58 to <4 x i32>*
  store <4 x i32> <i32 1, i32 1, i32 1, i32 1>, <4 x i32>* %59, align 16, !tbaa !5
  %60 = getelementptr inbounds [200 x i32], [200 x i32]* %3, i64 0, i64 108
  %61 = bitcast i32* %60 to <4 x i32>*
  store <4 x i32> <i32 1, i32 1, i32 1, i32 1>, <4 x i32>* %61, align 16, !tbaa !5
  %62 = getelementptr inbounds [200 x i32], [200 x i32]* %3, i64 0, i64 112
  %63 = bitcast i32* %62 to <4 x i32>*
  store <4 x i32> <i32 1, i32 1, i32 1, i32 1>, <4 x i32>* %63, align 16, !tbaa !5
  %64 = getelementptr inbounds [200 x i32], [200 x i32]* %3, i64 0, i64 116
  %65 = bitcast i32* %64 to <4 x i32>*
  store <4 x i32> <i32 1, i32 1, i32 1, i32 1>, <4 x i32>* %65, align 16, !tbaa !5
  %66 = getelementptr inbounds [200 x i32], [200 x i32]* %3, i64 0, i64 120
  %67 = bitcast i32* %66 to <4 x i32>*
  store <4 x i32> <i32 1, i32 1, i32 1, i32 1>, <4 x i32>* %67, align 16, !tbaa !5
  %68 = getelementptr inbounds [200 x i32], [200 x i32]* %3, i64 0, i64 124
  %69 = bitcast i32* %68 to <4 x i32>*
  store <4 x i32> <i32 1, i32 1, i32 1, i32 1>, <4 x i32>* %69, align 16, !tbaa !5
  %70 = getelementptr inbounds [200 x i32], [200 x i32]* %3, i64 0, i64 128
  %71 = bitcast i32* %70 to <4 x i32>*
  store <4 x i32> <i32 1, i32 1, i32 1, i32 1>, <4 x i32>* %71, align 16, !tbaa !5
  %72 = getelementptr inbounds [200 x i32], [200 x i32]* %3, i64 0, i64 132
  %73 = bitcast i32* %72 to <4 x i32>*
  store <4 x i32> <i32 1, i32 1, i32 1, i32 1>, <4 x i32>* %73, align 16, !tbaa !5
  %74 = getelementptr inbounds [200 x i32], [200 x i32]* %3, i64 0, i64 136
  %75 = bitcast i32* %74 to <4 x i32>*
  store <4 x i32> <i32 1, i32 1, i32 1, i32 1>, <4 x i32>* %75, align 16, !tbaa !5
  %76 = getelementptr inbounds [200 x i32], [200 x i32]* %3, i64 0, i64 140
  %77 = bitcast i32* %76 to <4 x i32>*
  store <4 x i32> <i32 1, i32 1, i32 1, i32 1>, <4 x i32>* %77, align 16, !tbaa !5
  %78 = getelementptr inbounds [200 x i32], [200 x i32]* %3, i64 0, i64 144
  %79 = bitcast i32* %78 to <4 x i32>*
  store <4 x i32> <i32 1, i32 1, i32 1, i32 1>, <4 x i32>* %79, align 16, !tbaa !5
  %80 = getelementptr inbounds [200 x i32], [200 x i32]* %3, i64 0, i64 148
  %81 = bitcast i32* %80 to <4 x i32>*
  store <4 x i32> <i32 1, i32 1, i32 1, i32 1>, <4 x i32>* %81, align 16, !tbaa !5
  %82 = getelementptr inbounds [200 x i32], [200 x i32]* %3, i64 0, i64 152
  %83 = bitcast i32* %82 to <4 x i32>*
  store <4 x i32> <i32 1, i32 1, i32 1, i32 1>, <4 x i32>* %83, align 16, !tbaa !5
  %84 = getelementptr inbounds [200 x i32], [200 x i32]* %3, i64 0, i64 156
  %85 = bitcast i32* %84 to <4 x i32>*
  store <4 x i32> <i32 1, i32 1, i32 1, i32 1>, <4 x i32>* %85, align 16, !tbaa !5
  %86 = getelementptr inbounds [200 x i32], [200 x i32]* %3, i64 0, i64 160
  %87 = bitcast i32* %86 to <4 x i32>*
  store <4 x i32> <i32 1, i32 1, i32 1, i32 1>, <4 x i32>* %87, align 16, !tbaa !5
  %88 = getelementptr inbounds [200 x i32], [200 x i32]* %3, i64 0, i64 164
  %89 = bitcast i32* %88 to <4 x i32>*
  store <4 x i32> <i32 1, i32 1, i32 1, i32 1>, <4 x i32>* %89, align 16, !tbaa !5
  %90 = getelementptr inbounds [200 x i32], [200 x i32]* %3, i64 0, i64 168
  %91 = bitcast i32* %90 to <4 x i32>*
  store <4 x i32> <i32 1, i32 1, i32 1, i32 1>, <4 x i32>* %91, align 16, !tbaa !5
  %92 = getelementptr inbounds [200 x i32], [200 x i32]* %3, i64 0, i64 172
  %93 = bitcast i32* %92 to <4 x i32>*
  store <4 x i32> <i32 1, i32 1, i32 1, i32 1>, <4 x i32>* %93, align 16, !tbaa !5
  %94 = getelementptr inbounds [200 x i32], [200 x i32]* %3, i64 0, i64 176
  %95 = bitcast i32* %94 to <4 x i32>*
  store <4 x i32> <i32 1, i32 1, i32 1, i32 1>, <4 x i32>* %95, align 16, !tbaa !5
  %96 = getelementptr inbounds [200 x i32], [200 x i32]* %3, i64 0, i64 180
  %97 = bitcast i32* %96 to <4 x i32>*
  store <4 x i32> <i32 1, i32 1, i32 1, i32 1>, <4 x i32>* %97, align 16, !tbaa !5
  %98 = getelementptr inbounds [200 x i32], [200 x i32]* %3, i64 0, i64 184
  %99 = bitcast i32* %98 to <4 x i32>*
  store <4 x i32> <i32 1, i32 1, i32 1, i32 1>, <4 x i32>* %99, align 16, !tbaa !5
  %100 = getelementptr inbounds [200 x i32], [200 x i32]* %3, i64 0, i64 188
  %101 = bitcast i32* %100 to <4 x i32>*
  store <4 x i32> <i32 1, i32 1, i32 1, i32 1>, <4 x i32>* %101, align 16, !tbaa !5
  %102 = getelementptr inbounds [200 x i32], [200 x i32]* %3, i64 0, i64 192
  %103 = bitcast i32* %102 to <4 x i32>*
  store <4 x i32> <i32 1, i32 1, i32 1, i32 1>, <4 x i32>* %103, align 16, !tbaa !5
  %104 = getelementptr inbounds [200 x i32], [200 x i32]* %3, i64 0, i64 196
  %105 = bitcast i32* %104 to <4 x i32>*
  store <4 x i32> <i32 1, i32 1, i32 1, i32 1>, <4 x i32>* %105, align 16, !tbaa !5
  %106 = call i32 (i8*, ...) @__isoc99_scanf(i8* getelementptr inbounds ([3 x i8], [3 x i8]* @.str, i64 0, i64 0), i8* nonnull %4)
  %107 = call i32 (i8*, ...) @__isoc99_scanf(i8* getelementptr inbounds ([3 x i8], [3 x i8]* @.str, i64 0, i64 0), i8* nonnull %5)
  %108 = call i64 @strlen(i8* noundef nonnull %4) #5
  %109 = call i64 @strlen(i8* noundef nonnull %5) #5
  %110 = icmp eq i64 %108, %109
  br i1 %110, label %111, label %188

111:                                              ; preds = %0
  %112 = icmp eq i64 %108, 0
  br i1 %112, label %187, label %113

113:                                              ; preds = %111, %129
  %114 = phi i64 [ %130, %129 ], [ 0, %111 ]
  %115 = getelementptr inbounds [200 x i8], [200 x i8]* %1, i64 0, i64 %114
  %116 = load i8, i8* %115, align 1, !tbaa !9
  br label %117

117:                                              ; preds = %113, %132
  %118 = phi i64 [ 0, %113 ], [ %133, %132 ]
  %119 = getelementptr inbounds [200 x i8], [200 x i8]* %2, i64 0, i64 %118
  %120 = load i8, i8* %119, align 1, !tbaa !9
  %121 = icmp eq i8 %116, %120
  br i1 %121, label %122, label %132

122:                                              ; preds = %117
  %123 = getelementptr inbounds [200 x i32], [200 x i32]* %3, i64 0, i64 %118
  %124 = load i32, i32* %123, align 4, !tbaa !5
  %125 = icmp eq i32 %124, 0
  br i1 %125, label %132, label %126

126:                                              ; preds = %122
  %127 = and i64 %118, 4294967295
  %128 = getelementptr inbounds [200 x i32], [200 x i32]* %3, i64 0, i64 %127
  store i32 0, i32* %128, align 4, !tbaa !5
  br label %129

129:                                              ; preds = %132, %126
  %130 = add nuw nsw i64 %114, 1
  %131 = icmp eq i64 %130, %108
  br i1 %131, label %135, label %113, !llvm.loop !10

132:                                              ; preds = %122, %117
  %133 = add nuw i64 %118, 1
  %134 = icmp eq i64 %133, %108
  br i1 %134, label %129, label %117, !llvm.loop !12

135:                                              ; preds = %129
  br i1 %112, label %187, label %136

136:                                              ; preds = %135
  %137 = add i64 %108, -1
  %138 = and i64 %108, 3
  %139 = icmp ult i64 %137, 3
  br i1 %139, label %168, label %140

140:                                              ; preds = %136
  %141 = and i64 %108, -4
  br label %142

142:                                              ; preds = %142, %140
  %143 = phi i64 [ 0, %140 ], [ %165, %142 ]
  %144 = phi i32 [ 0, %140 ], [ %164, %142 ]
  %145 = phi i64 [ %141, %140 ], [ %166, %142 ]
  %146 = getelementptr inbounds [200 x i32], [200 x i32]* %3, i64 0, i64 %143
  %147 = load i32, i32* %146, align 16, !tbaa !5
  %148 = icmp eq i32 %147, 1
  %149 = or i64 %143, 1
  %150 = getelementptr inbounds [200 x i32], [200 x i32]* %3, i64 0, i64 %149
  %151 = load i32, i32* %150, align 4, !tbaa !5
  %152 = icmp eq i32 %151, 1
  %153 = or i64 %143, 2
  %154 = getelementptr inbounds [200 x i32], [200 x i32]* %3, i64 0, i64 %153
  %155 = load i32, i32* %154, align 8, !tbaa !5
  %156 = icmp eq i32 %155, 1
  %157 = or i64 %143, 3
  %158 = getelementptr inbounds [200 x i32], [200 x i32]* %3, i64 0, i64 %157
  %159 = load i32, i32* %158, align 4, !tbaa !5
  %160 = icmp eq i32 %159, 1
  %161 = select i1 %160, i1 true, i1 %156
  %162 = select i1 %161, i1 true, i1 %152
  %163 = select i1 %162, i1 true, i1 %148
  %164 = select i1 %163, i32 1, i32 %144
  %165 = add nuw nsw i64 %143, 4
  %166 = add i64 %145, -4
  %167 = icmp eq i64 %166, 0
  br i1 %167, label %168, label %142, !llvm.loop !13

168:                                              ; preds = %142, %136
  %169 = phi i32 [ undef, %136 ], [ %164, %142 ]
  %170 = phi i64 [ 0, %136 ], [ %165, %142 ]
  %171 = phi i32 [ 0, %136 ], [ %164, %142 ]
  %172 = icmp eq i64 %138, 0
  br i1 %172, label %184, label %173

173:                                              ; preds = %168, %173
  %174 = phi i64 [ %181, %173 ], [ %170, %168 ]
  %175 = phi i32 [ %180, %173 ], [ %171, %168 ]
  %176 = phi i64 [ %182, %173 ], [ %138, %168 ]
  %177 = getelementptr inbounds [200 x i32], [200 x i32]* %3, i64 0, i64 %174
  %178 = load i32, i32* %177, align 4, !tbaa !5
  %179 = icmp eq i32 %178, 1
  %180 = select i1 %179, i32 1, i32 %175
  %181 = add nuw nsw i64 %174, 1
  %182 = add i64 %176, -1
  %183 = icmp eq i64 %182, 0
  br i1 %183, label %184, label %173, !llvm.loop !14

184:                                              ; preds = %173, %168
  %185 = phi i32 [ %169, %168 ], [ %180, %173 ]
  %186 = icmp eq i32 %185, 1
  br i1 %186, label %188, label %187

187:                                              ; preds = %111, %135, %184
  br label %188

188:                                              ; preds = %184, %0, %187
  %189 = phi i8* [ getelementptr inbounds ([4 x i8], [4 x i8]* @.str.2, i64 0, i64 0), %187 ], [ getelementptr inbounds ([3 x i8], [3 x i8]* @.str.1, i64 0, i64 0), %0 ], [ getelementptr inbounds ([3 x i8], [3 x i8]* @.str.1, i64 0, i64 0), %184 ]
  %190 = call i32 (i8*, ...) @printf(i8* nonnull dereferenceable(1) %189)
  call void @llvm.lifetime.end.p0i8(i64 800, i8* nonnull %6) #4
  call void @llvm.lifetime.end.p0i8(i64 200, i8* nonnull %5) #4
  call void @llvm.lifetime.end.p0i8(i64 200, i8* nonnull %4) #4
  ret i32 0
}

; Function Attrs: argmemonly mustprogress nofree nosync nounwind willreturn
declare void @llvm.lifetime.start.p0i8(i64 immarg, i8* nocapture) #1

; Function Attrs: nofree nounwind
declare noundef i32 @__isoc99_scanf(i8* nocapture noundef readonly, ...) local_unnamed_addr #2

; Function Attrs: argmemonly mustprogress nofree nounwind readonly willreturn
declare i64 @strlen(i8* nocapture) local_unnamed_addr #3

; Function Attrs: nofree nounwind
declare noundef i32 @printf(i8* nocapture noundef readonly, ...) local_unnamed_addr #2

; Function Attrs: argmemonly mustprogress nofree nosync nounwind willreturn
declare void @llvm.lifetime.end.p0i8(i64 immarg, i8* nocapture) #1


!llvm.module.flags = !{!0, !1, !2, !3}
!llvm.ident = !{!4}

!0 = !{i32 1, !"wchar_size", i32 4}
!1 = !{i32 7, !"PIC Level", i32 2}
!2 = !{i32 7, !"PIE Level", i32 2}
!3 = !{i32 7, !"uwtable", i32 1}
!4 = !{!"clang version 13.0.0"}
!5 = !{!6, !6, i64 0}
!6 = !{!"int", !7, i64 0}
!7 = !{!"omnipotent char", !8, i64 0}
!8 = !{!"Simple C/C++ TBAA"}
!9 = !{!7, !7, i64 0}
!10 = distinct !{!10, !11}
!11 = !{!"llvm.loop.mustprogress"}
!12 = distinct !{!12, !11}
!13 = distinct !{!13, !11}
!14 = distinct !{!14, !15}
!15 = !{!"llvm.loop.unroll.disable"}
